; ModuleID = '62/3047.c'
source_filename = "62/3047.c"
target datalayout = "e-m:e-p270:32:32-p271:32:32-p272:64:64-i64:64-f80:128-n8:16:32:64-S128"
target triple = "x86_64-pc-linux-gnu"

; Function Attrs: noinline nounwind uwtable
define dso_local i32 @main() #0 {
  %1 = alloca i32, align 4
  %2 = alloca [200 x i8], align 16
  %3 = alloca i32, align 4
  %4 = alloca i32, align 4
  %5 = alloca i32, align 4
  %6 = alloca i32, align 4
  store i32 0, i32* %1, align 4
  %7 = getelementptr inbounds [200 x i8], [200 x i8]* %2, i64 0, i64 0
  %8 = call i32 (i8*, ...) bitcast (i32 (...)* @gets to i32 (i8*, ...)*)(i8* %7)
  store i32 0, i32* %6, align 4
  %9 = getelementptr inbounds [200 x i8], [200 x i8]* %2, i64 0, i64 0
  %10 = call i64 @strlen(i8* %9) #3
  %11 = trunc i64 %10 to i32
  store i32 %11, i32* %4, align 4
  store i32 1, i32* %3, align 4
  br label %12

12:                                               ; preds = %62, %0
  %13 = load i32, i32* %3, align 4
  %14 = load i32, i32* %4, align 4
  %15 = icmp slt i32 %13, %14
  br i1 %15, label %16, label %65

16:                                               ; preds = %12
  %17 = load i32, i32* %3, align 4
  %18 = sub nsw i32 %17, 1
  %19 = sext i32 %18 to i64
  %20 = getelementptr inbounds [200 x i8], [200 x i8]* %2, i64 0, i64 %19
  %21 = load i8, i8* %20, align 1
  %22 = sext i8 %21 to i32
  %23 = icmp eq i32 %22, 32
  br i1 %23, label %24, label %61

24:                                               ; preds = %16
  %25 = load i32, i32* %3, align 4
  %26 = sext i32 %25 to i64
  %27 = getelementptr inbounds [200 x i8], [200 x i8]* %2, i64 0, i64 %26
  %28 = load i8, i8* %27, align 1
  %29 = sext i8 %28 to i32
  %30 = icmp eq i32 %29, 32
  br i1 %30, label %31, label %60

31:                                               ; preds = %24
  %32 = load i32, i32* %3, align 4
  %33 = sub nsw i32 %32, 1
  store i32 %33, i32* %5, align 4
  br label %34

34:                                               ; preds = %52, %31
  %35 = load i32, i32* %5, align 4
  %36 = load i32, i32* %4, align 4
  %37 = icmp slt i32 %35, %36
  br i1 %37, label %38, label %55

38:                                               ; preds = %34
  %39 = load i32, i32* %5, align 4
  %40 = add nsw i32 %39, 1
  %41 = sext i32 %40 to i64
  %42 = getelementptr inbounds [200 x i8], [200 x i8]* %2, i64 0, i64 %41
  %43 = load i8, i8* %42, align 1
  %44 = load i32, i32* %5, align 4
  %45 = sext i32 %44 to i64
  %46 = getelementptr inbounds [200 x i8], [200 x i8]* %2, i64 0, i64 %45
  store i8 %43, i8* %46, align 1
  %47 = load i32, i32* %4, align 4
  %48 = load i32, i32* %6, align 4
  %49 = sub nsw i32 %47, %48
  %50 = sext i32 %49 to i64
  %51 = getelementptr inbounds [200 x i8], [200 x i8]* %2, i64 0, i64 %50
  store i8 0, i8* %51, align 1
  br label %52

52:                                               ; preds = %38
  %53 = load i32, i32* %5, align 4
  %54 = add nsw i32 %53, 1
  store i32 %54, i32* %5, align 4
  br label %34

55:                                               ; preds = %34
  %56 = load i32, i32* %6, align 4
  %57 = add nsw i32 %56, 1
  store i32 %57, i32* %6, align 4
  %58 = load i32, i32* %3, align 4
  %59 = add nsw i32 %58, -1
  store i32 %59, i32* %3, align 4
  br label %60

60:                                               ; preds = %55, %24
  br label %61

61:                                               ; preds = %60, %16
  br label %62

62:                                               ; preds = %61
  %63 = load i32, i32* %3, align 4
  %64 = add nsw i32 %63, 1
  store i32 %64, i32* %3, align 4
  br label %12

65:                                               ; preds = %12
  %66 = getelementptr inbounds [200 x i8], [200 x i8]* %2, i64 0, i64 0
  %67 = call i32 @puts(i8* %66)
  ret i32 0
}

declare dso_local i32 @gets(...) #1

; Function Attrs: nounwind readonly
declare dso_local i64 @strlen(i8*) #2

declare dso_local i32 @puts(i8*) #1


!llvm.module.flags = !{!0}
!llvm.ident = !{!1}

!0 = !{i32 1, !"wchar_size", i32 4}
!1 = !{!"clang version 10.0.0-4ubuntu1 "}
